; Function Attrs: mustprogress uwtable
define void @_ZN32pxrInternal_v0_24__pxrReserved__37UsdUtils_ReadOnlyLocalizationDelegate16ProcessValuePathERKNS_8TfRefPtrINS_8SdfLayerEEERKNSt7__cxx1112basic_stringIcSt11char_traitsIcESaIcEEESD_RKSt6vectorISB_SaISB_EE(ptr dead_on_unwind noalias writable sret(%"class.std::vector") align 8 %0, ptr noundef nonnull align 8 dereferenceable(96) %1, ptr noundef nonnull align 8 dereferenceable(8) %2, ptr nonnull readnone align 8 captures(none) %3, ptr noundef nonnull align 8 dereferenceable(32) %4, ptr noundef nonnull align 8 dereferenceable(24) %5) unnamed_addr #0 align 2 personality ptr @__gxx_personality_v0 {
  %7 = alloca %"class.pxrInternal_v0_24__pxrReserved__::UsdUtilsDependencyInfo", align 8
  %8 = alloca %"class.pxrInternal_v0_24__pxrReserved__::UsdUtilsDependencyInfo", align 8
  %9 = tail call noundef zeroext i1 @_ZNKSt7__cxx1112basic_stringIcSt11char_traitsIcESaIcEE5emptyEv(ptr noundef nonnull align 8 dereferenceable(32) %4) #19
  br i1 %9, label %10, label %11

10:                                               ; preds = %6
  tail call void @llvm.memset.p0.i64(ptr noundef nonnull align 8 dereferenceable(24) %0, i8 0, i64 24, i1 false)
  br label %46

11:                                               ; preds = %6
  call void @_ZNSt7__cxx1112basic_stringIcSt11char_traitsIcESaIcEEC1ERKS4_(ptr noundef nonnull align 8 dereferenceable(56) %8, ptr noundef nonnull align 8 dereferenceable(32) %4)
  %12 = getelementptr inbounds nuw i8, ptr %8, i64 32
  invoke void @_ZNSt6vectorINSt7__cxx1112basic_stringIcSt11char_traitsIcESaIcEEESaIS5_EEC2ERKS7_(ptr noundef nonnull align 8 dereferenceable(24) %12, ptr noundef nonnull align 8 dereferenceable(24) %5)
          to label %_ZN32pxrInternal_v0_24__pxrReserved__22UsdUtilsDependencyInfoC2ERKNSt7__cxx1112basic_stringIcSt11char_traitsIcESaIcEEERKSt6vectorIS6_SaIS6_EE.exit unwind label %13

common.resume:                                    ; preds = %45, %13
  %common.resume.op = phi { ptr, i32 } [ %14, %13 ], [ %.pn, %45 ]
  resume { ptr, i32 } %common.resume.op

13:                                               ; preds = %11
  %14 = landingpad { ptr, i32 }
          cleanup
  call void @_ZNSt7__cxx1112basic_stringIcSt11char_traitsIcESaIcEED1Ev(ptr noundef nonnull align 8 dereferenceable(56) %8) #19
  br label %common.resume

_ZN32pxrInternal_v0_24__pxrReserved__22UsdUtilsDependencyInfoC2ERKNSt7__cxx1112basic_stringIcSt11char_traitsIcESaIcEEERKSt6vectorIS6_SaIS6_EE.exit: ; preds = %11
  %15 = getelementptr inbounds nuw i8, ptr %1, i64 8
  invoke void @_ZN32pxrInternal_v0_24__pxrReserved__27UsdUtils_ProcessedPathCache16GetProcessedInfoERKNS_8TfRefPtrINS_8SdfLayerEEERKNS_22UsdUtilsDependencyInfoENS_23UsdUtils_DependencyTypeE(ptr dead_on_unwind nonnull writable sret(%"class.pxrInternal_v0_24__pxrReserved__::UsdUtilsDependencyInfo") align 8 %7, ptr noundef nonnull align 8 dereferenceable(88) %15, ptr noundef nonnull align 8 dereferenceable(8) %2, ptr noundef nonnull align 8 dereferenceable(56) %8, i32 noundef 0)
          to label %16 unwind label %41

16:                                               ; preds = %_ZN32pxrInternal_v0_24__pxrReserved__22UsdUtilsDependencyInfoC2ERKNSt7__cxx1112basic_stringIcSt11char_traitsIcESaIcEEERKSt6vectorIS6_SaIS6_EE.exit
  invoke fastcc void @_ZN32pxrInternal_v0_24__pxrReserved__L23_AllDependenciesForInfoB5cxx11ERKNS_22UsdUtilsDependencyInfoE(ptr dead_on_unwind noalias writable align 8 %0, ptr noundef nonnull align 8 dereferenceable(56) %7)
          to label %17 unwind label %43

17:                                               ; preds = %16
  %18 = getelementptr inbounds nuw i8, ptr %7, i64 32
  %19 = load ptr, ptr %18, align 8
  %20 = getelementptr inbounds nuw i8, ptr %7, i64 40
  %21 = load ptr, ptr %20, align 8
  %.not4.i.i.i.i.i = icmp eq ptr %19, %21
  br i1 %.not4.i.i.i.i.i, label %_ZSt8_DestroyIPNSt7__cxx1112basic_stringIcSt11char_traitsIcESaIcEEES5_EvT_S7_RSaIT0_E.exit.i.i, label %.lr.ph.i.i.i.i.i

.lr.ph.i.i.i.i.i:                                 ; preds = %17, %.lr.ph.i.i.i.i.i
  %.05.i.i.i.i.i = phi ptr [ %22, %.lr.ph.i.i.i.i.i ], [ %19, %17 ]
  call void @_ZNSt7__cxx1112basic_stringIcSt11char_traitsIcESaIcEED1Ev(ptr noundef nonnull align 8 dereferenceable(32) %.05.i.i.i.i.i) #19
  %22 = getelementptr inbounds nuw i8, ptr %.05.i.i.i.i.i, i64 32
  %.not.i.i.i.i.i = icmp eq ptr %22, %21
  br i1 %.not.i.i.i.i.i, label %_ZSt8_DestroyIPNSt7__cxx1112basic_stringIcSt11char_traitsIcESaIcEEES5_EvT_S7_RSaIT0_E.exitthread-pre-split.i.i, label %.lr.ph.i.i.i.i.i, !llvm.loop !7

_ZSt8_DestroyIPNSt7__cxx1112basic_stringIcSt11char_traitsIcESaIcEEES5_EvT_S7_RSaIT0_E.exitthread-pre-split.i.i: ; preds = %.lr.ph.i.i.i.i.i
  %.pr.i.i = load ptr, ptr %18, align 8
  br label %_ZSt8_DestroyIPNSt7__cxx1112basic_stringIcSt11char_traitsIcESaIcEEES5_EvT_S7_RSaIT0_E.exit.i.i

_ZSt8_DestroyIPNSt7__cxx1112basic_stringIcSt11char_traitsIcESaIcEEES5_EvT_S7_RSaIT0_E.exit.i.i: ; preds = %_ZSt8_DestroyIPNSt7__cxx1112basic_stringIcSt11char_traitsIcESaIcEEES5_EvT_S7_RSaIT0_E.exitthread-pre-split.i.i, %17
  %23 = phi ptr [ %.pr.i.i, %_ZSt8_DestroyIPNSt7__cxx1112basic_stringIcSt11char_traitsIcESaIcEEES5_EvT_S7_RSaIT0_E.exitthread-pre-split.i.i ], [ %19, %17 ]
  %.not.i.i.i.i = icmp eq ptr %23, null
  br i1 %.not.i.i.i.i, label %_ZN32pxrInternal_v0_24__pxrReserved__22UsdUtilsDependencyInfoD2Ev.exit, label %24

24:                                               ; preds = %_ZSt8_DestroyIPNSt7__cxx1112basic_stringIcSt11char_traitsIcESaIcEEES5_EvT_S7_RSaIT0_E.exit.i.i
  %25 = getelementptr inbounds nuw i8, ptr %7, i64 48
  %26 = load ptr, ptr %25, align 8
  %27 = ptrtoint ptr %26 to i64
  %28 = ptrtoint ptr %23 to i64
  %29 = sub i64 %27, %28
  call void @_ZdlPvm(ptr noundef nonnull %23, i64 noundef %29) #20
  br label %_ZN32pxrInternal_v0_24__pxrReserved__22UsdUtilsDependencyInfoD2Ev.exit

_ZN32pxrInternal_v0_24__pxrReserved__22UsdUtilsDependencyInfoD2Ev.exit: ; preds = %_ZSt8_DestroyIPNSt7__cxx1112basic_stringIcSt11char_traitsIcESaIcEEES5_EvT_S7_RSaIT0_E.exit.i.i, %24
  call void @_ZNSt7__cxx1112basic_stringIcSt11char_traitsIcESaIcEED1Ev(ptr noundef nonnull align 8 dereferenceable(56) %7) #19
  %30 = load ptr, ptr %12, align 8
  %31 = getelementptr inbounds nuw i8, ptr %8, i64 40
  %32 = load ptr, ptr %31, align 8
  %.not4.i.i.i.i.i8 = icmp eq ptr %30, %32
  br i1 %.not4.i.i.i.i.i8, label %_ZSt8_DestroyIPNSt7__cxx1112basic_stringIcSt11char_traitsIcESaIcEEES5_EvT_S7_RSaIT0_E.exit.i.i14, label %.lr.ph.i.i.i.i.i9

.lr.ph.i.i.i.i.i9:                                ; preds = %_ZN32pxrInternal_v0_24__pxrReserved__22UsdUtilsDependencyInfoD2Ev.exit, %.lr.ph.i.i.i.i.i9
  %.05.i.i.i.i.i10 = phi ptr [ %33, %.lr.ph.i.i.i.i.i9 ], [ %30, %_ZN32pxrInternal_v0_24__pxrReserved__22UsdUtilsDependencyInfoD2Ev.exit ]
  call void @_ZNSt7__cxx1112basic_stringIcSt11char_traitsIcESaIcEED1Ev(ptr noundef nonnull align 8 dereferenceable(32) %.05.i.i.i.i.i10) #19
  %33 = getelementptr inbounds nuw i8, ptr %.05.i.i.i.i.i10, i64 32
  %.not.i.i.i.i.i11 = icmp eq ptr %33, %32
  br i1 %.not.i.i.i.i.i11, label %_ZSt8_DestroyIPNSt7__cxx1112basic_stringIcSt11char_traitsIcESaIcEEES5_EvT_S7_RSaIT0_E.exitthread-pre-split.i.i12, label %.lr.ph.i.i.i.i.i9, !llvm.loop !7

_ZSt8_DestroyIPNSt7__cxx1112basic_stringIcSt11char_traitsIcESaIcEEES5_EvT_S7_RSaIT0_E.exitthread-pre-split.i.i12: ; preds = %.lr.ph.i.i.i.i.i9
  %.pr.i.i13 = load ptr, ptr %12, align 8
  br label %_ZSt8_DestroyIPNSt7__cxx1112basic_stringIcSt11char_traitsIcESaIcEEES5_EvT_S7_RSaIT0_E.exit.i.i14

_ZSt8_DestroyIPNSt7__cxx1112basic_stringIcSt11char_traitsIcESaIcEEES5_EvT_S7_RSaIT0_E.exit.i.i14: ; preds = %_ZSt8_DestroyIPNSt7__cxx1112basic_stringIcSt11char_traitsIcESaIcEEES5_EvT_S7_RSaIT0_E.exitthread-pre-split.i.i12, %_ZN32pxrInternal_v0_24__pxrReserved__22UsdUtilsDependencyInfoD2Ev.exit
  %34 = phi ptr [ %.pr.i.i13, %_ZSt8_DestroyIPNSt7__cxx1112basic_stringIcSt11char_traitsIcESaIcEEES5_EvT_S7_RSaIT0_E.exitthread-pre-split.i.i12 ], [ %30, %_ZN32pxrInternal_v0_24__pxrReserved__22UsdUtilsDependencyInfoD2Ev.exit ]
  %.not.i.i.i.i15 = icmp eq ptr %34, null
  br i1 %.not.i.i.i.i15, label %_ZN32pxrInternal_v0_24__pxrReserved__22UsdUtilsDependencyInfoD2Ev.exit16, label %35

35:                                               ; preds = %_ZSt8_DestroyIPNSt7__cxx1112basic_stringIcSt11char_traitsIcESaIcEEES5_EvT_S7_RSaIT0_E.exit.i.i14
  %36 = getelementptr inbounds nuw i8, ptr %8, i64 48
  %37 = load ptr, ptr %36, align 8
  %38 = ptrtoint ptr %37 to i64
  %39 = ptrtoint ptr %34 to i64
  %40 = sub i64 %38, %39
  call void @_ZdlPvm(ptr noundef nonnull %34, i64 noundef %40) #20
  br label %_ZN32pxrInternal_v0_24__pxrReserved__22UsdUtilsDependencyInfoD2Ev.exit16

_ZN32pxrInternal_v0_24__pxrReserved__22UsdUtilsDependencyInfoD2Ev.exit16: ; preds = %_ZSt8_DestroyIPNSt7__cxx1112basic_stringIcSt11char_traitsIcESaIcEEES5_EvT_S7_RSaIT0_E.exit.i.i14, %35
  call void @_ZNSt7__cxx1112basic_stringIcSt11char_traitsIcESaIcEED1Ev(ptr noundef nonnull align 8 dereferenceable(56) %8) #19
  br label %46

41:                                               ; preds = %_ZN32pxrInternal_v0_24__pxrReserved__22UsdUtilsDependencyInfoC2ERKNSt7__cxx1112basic_stringIcSt11char_traitsIcESaIcEEERKSt6vectorIS6_SaIS6_EE.exit
  %42 = landingpad { ptr, i32 }
          cleanup
  br label %45

43:                                               ; preds = %16
  %44 = landingpad { ptr, i32 }
          cleanup
  call void @_ZN32pxrInternal_v0_24__pxrReserved__22UsdUtilsDependencyInfoD2Ev(ptr noundef nonnull align 8 dereferenceable(56) %7) #19
  br label %45

45:                                               ; preds = %43, %41
  %.pn = phi { ptr, i32 } [ %44, %43 ], [ %42, %41 ]
  call void @_ZN32pxrInternal_v0_24__pxrReserved__22UsdUtilsDependencyInfoD2Ev(ptr noundef nonnull align 8 dereferenceable(56) %8) #19
  br label %common.resume

46:                                               ; preds = %_ZN32pxrInternal_v0_24__pxrReserved__22UsdUtilsDependencyInfoD2Ev.exit16, %10
  ret void
}